target datalayout = "e-m:e-p270:32:32-p271:32:32-p272:64:64-i64:64-i128:128-f80:128-n8:16:32:64-S128"
target triple = "x86_64-pc-linux-gnu"

%struct.H5O_shared_t = type { i32, ptr, i32, %union.anon }
%union.anon = type { %struct.H5O_mesg_loc_t }
%struct.H5O_mesg_loc_t = type { i32, i64 }
%struct.H5O_pline_t = type { %struct.H5O_shared_t, i32, i64, i64, ptr }

@H5D_init_g = external global i8, align 1
@H5_libterm_g = external global i8, align 1
@H5_chunk_blk_free_list = internal global { i8, [3 x i8], i32, i32, [4 x i8], i64, ptr, ptr } { i8 0, [3 x i8] zeroinitializer, i32 0, i32 0, [4 x i8] zeroinitializer, i64 0, ptr @.str.144, ptr null }, align 8

; Function Attrs: nounwind uwtable
define ptr @H5D__chunk_mem_xfree(ptr noundef %0, ptr noundef %1) #0 {
  %3 = alloca ptr, align 8
  %4 = alloca ptr, align 8
  %5 = alloca ptr, align 8
  store ptr %0, ptr %3, align 8, !tbaa !154
  store ptr %1, ptr %4, align 8, !tbaa !154
  call void @llvm.lifetime.start.p0(i64 8, ptr %5) #10
  %6 = load ptr, ptr %4, align 8, !tbaa !154
  store ptr %6, ptr %5, align 8, !tbaa !247
  %7 = load i8, ptr @H5D_init_g, align 1, !tbaa !12, !range !14, !noundef !15
  %8 = trunc i8 %7 to i1
  br i1 %8, label %13, label %9

9:                                                ; preds = %2
  %10 = load i8, ptr @H5_libterm_g, align 1, !tbaa !12, !range !14, !noundef !15
  %11 = trunc i8 %10 to i1
  %12 = xor i1 %11, true
  br label %13

13:                                               ; preds = %9, %2
  %14 = phi i1 [ true, %2 ], [ %12, %9 ]
  %15 = xor i1 %14, true
  %16 = xor i1 %15, true
  %17 = zext i1 %16 to i32
  %18 = sext i32 %17 to i64
  %19 = call i64 @llvm.expect.i64(i64 %18, i64 1)
  %20 = icmp ne i64 %19, 0
  br i1 %20, label %21, label %40

21:                                               ; preds = %13
  %22 = load ptr, ptr %3, align 8, !tbaa !154
  %23 = icmp ne ptr %22, null
  br i1 %23, label %24, label %39

24:                                               ; preds = %21
  %25 = load ptr, ptr %5, align 8, !tbaa !247
  %26 = icmp ne ptr %25, null
  br i1 %26, label %27, label %35

27:                                               ; preds = %24
  %28 = load ptr, ptr %5, align 8, !tbaa !247
  %29 = getelementptr inbounds nuw %struct.H5O_pline_t, ptr %28, i32 0, i32 3
  %30 = load i64, ptr %29, align 8, !tbaa !191
  %31 = icmp ne i64 %30, 0
  br i1 %31, label %32, label %35

32:                                               ; preds = %27
  %33 = load ptr, ptr %3, align 8, !tbaa !154
  %34 = call ptr @H5MM_xfree(ptr noundef %33)
  br label %38

35:                                               ; preds = %27, %24
  %36 = load ptr, ptr %3, align 8, !tbaa !154
  %37 = call ptr @H5FL_blk_free(ptr noundef @H5_chunk_blk_free_list, ptr noundef %36)
  store ptr %37, ptr %3, align 8, !tbaa !154
  br label %38

38:                                               ; preds = %35, %32
  br label %39

39:                                               ; preds = %38, %21
  br label %40

40:                                               ; preds = %39, %13
  call void @llvm.lifetime.end.p0(i64 8, ptr %5) #10
  ret ptr null
}

; Function Attrs: nounwind uwtable
define void @H5D__chunk_mem_free(ptr noundef %0, ptr noundef %1) #0 {
  %3 = alloca ptr, align 8
  %4 = alloca ptr, align 8
  store ptr %0, ptr %3, align 8, !tbaa !154
  store ptr %1, ptr %4, align 8, !tbaa !154
  %5 = load ptr, ptr %3, align 8, !tbaa !154
  %6 = load ptr, ptr %4, align 8, !tbaa !154
  %7 = call ptr @H5D__chunk_mem_xfree(ptr noundef %5, ptr noundef %6)
  ret void
}