; Function Attrs: nounwind uwtable
define void @H5D__chunk_mem_free(ptr noundef %0, ptr noundef readonly captures(address_is_null) %1) #0 {
  %3 = load i8, ptr @H5D_init_g, align 1, !tbaa !3, !range !7, !noundef !8
  %4 = trunc nuw i8 %3 to i1
  %5 = load i8, ptr @H5_libterm_g, align 1, !range !7
  %6 = trunc nuw i8 %5 to i1
  %7 = xor i1 %6, true
  %8 = select i1 %4, i1 true, i1 %7
  %9 = icmp ne ptr %0, null
  %or.cond.i = and i1 %9, %8
  br i1 %or.cond.i, label %10, label %H5D__chunk_mem_xfree.exit, !prof !248

10:                                               ; preds = %2
  %.not.i = icmp eq ptr %1, null
  br i1 %.not.i, label %16, label %11

11:                                               ; preds = %10
  %12 = getelementptr inbounds nuw i8, ptr %1, i64 56
  %13 = load i64, ptr %12, align 8, !tbaa !192
  %.not8.i = icmp eq i64 %13, 0
  br i1 %.not8.i, label %16, label %14

14:                                               ; preds = %11
  %15 = tail call ptr @H5MM_xfree(ptr noundef nonnull %0) #15
  br label %H5D__chunk_mem_xfree.exit

16:                                               ; preds = %11, %10
  %17 = tail call ptr @H5FL_blk_free(ptr noundef nonnull @H5_chunk_blk_free_list, ptr noundef nonnull %0) #15
  br label %H5D__chunk_mem_xfree.exit

H5D__chunk_mem_xfree.exit:                        ; preds = %2, %14, %16
  ret void
}